ARM GAS  /var/folders/jb/36vwlcf91_ncq9m312zwyvxr0000gp/T//ccbJxUwA.s 			page 1


   1              		.cpu cortex-m3
   2              		.arch armv7-m
   3              		.fpu softvfp
   4              		.eabi_attribute 20, 1
   5              		.eabi_attribute 21, 1
   6              		.eabi_attribute 23, 3
   7              		.eabi_attribute 24, 1
   8              		.eabi_attribute 25, 1
   9              		.eabi_attribute 26, 1
  10              		.eabi_attribute 30, 1
  11              		.eabi_attribute 34, 1
  12              		.eabi_attribute 18, 4
  13              		.file	"main.c"
  14              		.text
  15              	.Ltext0:
  16              		.cfi_sections	.debug_frame
  17              		.file 1 "Src/main.c"
  18              		.section	.text.delay,"ax",%progbits
  19              		.align	1
  20              		.global	delay
  21              		.syntax unified
  22              		.thumb
  23              		.thumb_func
  25              	delay:
  26              	.LVL0:
  27              	.LFB30:
   1:Src/main.c    **** #include "stm32f10x.h"
   2:Src/main.c    **** #include "stm32f10x_conf.h"
   3:Src/main.c    **** 
   4:Src/main.c    **** void delay(uint32_t time);
   5:Src/main.c    **** 
   6:Src/main.c    **** 
   7:Src/main.c    **** int main(void){
   8:Src/main.c    ****     SystemInit();
   9:Src/main.c    ****     SystemCoreClockUpdate();
  10:Src/main.c    **** 
  11:Src/main.c    **** 
  12:Src/main.c    ****     // Enable GPIOC clock
  13:Src/main.c    ****     
  14:Src/main.c    ****     RCC_APB2PeriphClockCmd(RCC_APB2Periph_GPIOC, ENABLE);
  15:Src/main.c    ****     
  16:Src/main.c    ****     GPIO_InitTypeDef GPIO_InitStructure;
  17:Src/main.c    ****     GPIO_InitStructure.GPIO_Pin = GPIO_Pin_13;
  18:Src/main.c    ****     GPIO_InitStructure.GPIO_Mode = GPIO_Mode_Out_PP;
  19:Src/main.c    ****     GPIO_InitStructure.GPIO_Speed = GPIO_Speed_2MHz;
  20:Src/main.c    ****     GPIO_Init(GPIOC, &GPIO_InitStructure);
  21:Src/main.c    **** 
  22:Src/main.c    ****     while(1){
  23:Src/main.c    ****         GPIO_SetBits(GPIOC, GPIO_Pin_13);
  24:Src/main.c    ****         delay(500);
  25:Src/main.c    ****         GPIO_ResetBits(GPIOC, GPIO_Pin_13);
  26:Src/main.c    ****         delay(500);
  27:Src/main.c    ****     } 
  28:Src/main.c    **** 
  29:Src/main.c    **** }
  30:Src/main.c    **** 
  31:Src/main.c    **** void delay(uint32_t time){
ARM GAS  /var/folders/jb/36vwlcf91_ncq9m312zwyvxr0000gp/T//ccbJxUwA.s 			page 2


  28              		.loc 1 31 26 view -0
  29              		.cfi_startproc
  30              		@ args = 0, pretend = 0, frame = 0
  31              		@ frame_needed = 0, uses_anonymous_args = 0
  32              		@ link register save eliminated.
  32:Src/main.c    ****     for(uint32_t i = 0; i < time; i++){
  33              		.loc 1 32 5 view .LVU1
  34              	.LBB2:
  35              		.loc 1 32 9 view .LVU2
  36              		.loc 1 32 18 is_stmt 0 view .LVU3
  37 0000 4FF0000C 		mov	ip, #0
  38              		.loc 1 32 5 view .LVU4
  39 0004 0AE0     		b	.L2
  40              	.LVL1:
  41              	.L3:
  42              	.LBB3:
  33:Src/main.c    ****         for(uint32_t j = 0; j < (SystemCoreClock / 10000) / 3; j++);
  43              		.loc 1 33 65 is_stmt 1 discriminator 3 view .LVU5
  44 0006 0131     		adds	r1, r1, #1
  45              	.LVL2:
  46              	.L4:
  47              		.loc 1 33 31 discriminator 1 view .LVU6
  48              		.loc 1 33 59 is_stmt 0 discriminator 1 view .LVU7
  49 0008 074B     		ldr	r3, .L7
  50 000a 1B68     		ldr	r3, [r3]
  51 000c 074A     		ldr	r2, .L7+4
  52 000e A2FB0323 		umull	r2, r3, r2, r3
  53              		.loc 1 33 31 discriminator 1 view .LVU8
  54 0012 B1EB533F 		cmp	r1, r3, lsr #13
  55 0016 F6D3     		bcc	.L3
  56              	.LBE3:
  32:Src/main.c    ****     for(uint32_t i = 0; i < time; i++){
  57              		.loc 1 32 36 is_stmt 1 discriminator 2 view .LVU9
  58 0018 0CF1010C 		add	ip, ip, #1
  59              	.LVL3:
  60              	.L2:
  32:Src/main.c    ****     for(uint32_t i = 0; i < time; i++){
  61              		.loc 1 32 27 discriminator 1 view .LVU10
  62 001c 8445     		cmp	ip, r0
  63 001e 01D2     		bcs	.L6
  64              	.LBB4:
  65              		.loc 1 33 22 is_stmt 0 view .LVU11
  66 0020 0021     		movs	r1, #0
  67 0022 F1E7     		b	.L4
  68              	.L6:
  69              	.LBE4:
  70              	.LBE2:
  34:Src/main.c    ****     }
  35:Src/main.c    **** }...
  71              		.loc 1 35 1 view .LVU12
  72 0024 7047     		bx	lr
  73              	.L8:
  74 0026 00BF     		.align	2
  75              	.L7:
  76 0028 00000000 		.word	SystemCoreClock
  77 002c 73B2E745 		.word	1172812403
  78              		.cfi_endproc
ARM GAS  /var/folders/jb/36vwlcf91_ncq9m312zwyvxr0000gp/T//ccbJxUwA.s 			page 3


  79              	.LFE30:
  81              		.section	.text.main,"ax",%progbits
  82              		.align	1
  83              		.global	main
  84              		.syntax unified
  85              		.thumb
  86              		.thumb_func
  88              	main:
  89              	.LFB29:
   7:Src/main.c    **** int main(void){
  90              		.loc 1 7 15 is_stmt 1 view -0
  91              		.cfi_startproc
  92              		@ Volatile: function does not return.
  93              		@ args = 0, pretend = 0, frame = 8
  94              		@ frame_needed = 0, uses_anonymous_args = 0
  95 0000 00B5     		push	{lr}
  96              	.LCFI0:
  97              		.cfi_def_cfa_offset 4
  98              		.cfi_offset 14, -4
  99 0002 83B0     		sub	sp, sp, #12
 100              	.LCFI1:
 101              		.cfi_def_cfa_offset 16
   8:Src/main.c    ****     SystemInit();
 102              		.loc 1 8 5 view .LVU14
 103 0004 FFF7FEFF 		bl	SystemInit
 104              	.LVL4:
   9:Src/main.c    ****     SystemCoreClockUpdate();
 105              		.loc 1 9 5 view .LVU15
 106 0008 FFF7FEFF 		bl	SystemCoreClockUpdate
 107              	.LVL5:
  14:Src/main.c    ****     RCC_APB2PeriphClockCmd(RCC_APB2Periph_GPIOC, ENABLE);
 108              		.loc 1 14 5 view .LVU16
 109 000c 0121     		movs	r1, #1
 110 000e 1020     		movs	r0, #16
 111 0010 FFF7FEFF 		bl	RCC_APB2PeriphClockCmd
 112              	.LVL6:
  16:Src/main.c    ****     GPIO_InitTypeDef GPIO_InitStructure;
 113              		.loc 1 16 5 view .LVU17
  17:Src/main.c    ****     GPIO_InitStructure.GPIO_Pin = GPIO_Pin_13;
 114              		.loc 1 17 5 view .LVU18
  17:Src/main.c    ****     GPIO_InitStructure.GPIO_Pin = GPIO_Pin_13;
 115              		.loc 1 17 33 is_stmt 0 view .LVU19
 116 0014 4FF40053 		mov	r3, #8192
 117 0018 ADF80430 		strh	r3, [sp, #4]	@ movhi
  18:Src/main.c    ****     GPIO_InitStructure.GPIO_Mode = GPIO_Mode_Out_PP;
 118              		.loc 1 18 5 is_stmt 1 view .LVU20
  18:Src/main.c    ****     GPIO_InitStructure.GPIO_Mode = GPIO_Mode_Out_PP;
 119              		.loc 1 18 34 is_stmt 0 view .LVU21
 120 001c 1023     		movs	r3, #16
 121 001e 8DF80730 		strb	r3, [sp, #7]
  19:Src/main.c    ****     GPIO_InitStructure.GPIO_Speed = GPIO_Speed_2MHz;
 122              		.loc 1 19 5 is_stmt 1 view .LVU22
  19:Src/main.c    ****     GPIO_InitStructure.GPIO_Speed = GPIO_Speed_2MHz;
 123              		.loc 1 19 35 is_stmt 0 view .LVU23
 124 0022 0223     		movs	r3, #2
 125 0024 8DF80630 		strb	r3, [sp, #6]
  20:Src/main.c    ****     GPIO_Init(GPIOC, &GPIO_InitStructure);
ARM GAS  /var/folders/jb/36vwlcf91_ncq9m312zwyvxr0000gp/T//ccbJxUwA.s 			page 4


 126              		.loc 1 20 5 is_stmt 1 view .LVU24
 127 0028 01A9     		add	r1, sp, #4
 128 002a 0B48     		ldr	r0, .L12
 129 002c FFF7FEFF 		bl	GPIO_Init
 130              	.LVL7:
 131              	.L10:
  22:Src/main.c    ****     while(1){
 132              		.loc 1 22 5 view .LVU25
  23:Src/main.c    ****         GPIO_SetBits(GPIOC, GPIO_Pin_13);
 133              		.loc 1 23 9 view .LVU26
 134 0030 094C     		ldr	r4, .L12
 135 0032 4FF40051 		mov	r1, #8192
 136 0036 2046     		mov	r0, r4
 137 0038 FFF7FEFF 		bl	GPIO_SetBits
 138              	.LVL8:
  24:Src/main.c    ****         delay(500);
 139              		.loc 1 24 9 view .LVU27
 140 003c 4FF4FA70 		mov	r0, #500
 141 0040 FFF7FEFF 		bl	delay
 142              	.LVL9:
  25:Src/main.c    ****         GPIO_ResetBits(GPIOC, GPIO_Pin_13);
 143              		.loc 1 25 9 view .LVU28
 144 0044 4FF40051 		mov	r1, #8192
 145 0048 2046     		mov	r0, r4
 146 004a FFF7FEFF 		bl	GPIO_ResetBits
 147              	.LVL10:
  26:Src/main.c    ****         delay(500);
 148              		.loc 1 26 9 discriminator 1 view .LVU29
 149 004e 4FF4FA70 		mov	r0, #500
 150 0052 FFF7FEFF 		bl	delay
 151              	.LVL11:
  22:Src/main.c    ****     while(1){
 152              		.loc 1 22 10 view .LVU30
 153 0056 EBE7     		b	.L10
 154              	.L13:
 155              		.align	2
 156              	.L12:
 157 0058 00100140 		.word	1073811456
 158              		.cfi_endproc
 159              	.LFE29:
 161              		.text
 162              	.Letext0:
 163              		.file 2 "/Applications/ArmGNUToolchain/14.2.rel1/arm-none-eabi/arm-none-eabi/include/machine/_defa
 164              		.file 3 "/Applications/ArmGNUToolchain/14.2.rel1/arm-none-eabi/arm-none-eabi/include/sys/_stdint.h
 165              		.file 4 "SPL/CMSIS/CM3/DeviceSupport/ST/STM32F10x/stm32f10x.h"
 166              		.file 5 "SPL/STM32F10x_StdPeriph_Driver/inc/stm32f10x_gpio.h"
 167              		.file 6 "SPL/STM32F10x_StdPeriph_Driver/inc/stm32f10x_rcc.h"
 168              		.file 7 "SPL/CMSIS/CM3/DeviceSupport/ST/STM32F10x/system_stm32f10x.h"
ARM GAS  /var/folders/jb/36vwlcf91_ncq9m312zwyvxr0000gp/T//ccbJxUwA.s 			page 5


DEFINED SYMBOLS
                            *ABS*:00000000 main.c
/var/folders/jb/36vwlcf91_ncq9m312zwyvxr0000gp/T//ccbJxUwA.s:19     .text.delay:00000000 $t
/var/folders/jb/36vwlcf91_ncq9m312zwyvxr0000gp/T//ccbJxUwA.s:25     .text.delay:00000000 delay
/var/folders/jb/36vwlcf91_ncq9m312zwyvxr0000gp/T//ccbJxUwA.s:76     .text.delay:00000028 $d
/var/folders/jb/36vwlcf91_ncq9m312zwyvxr0000gp/T//ccbJxUwA.s:82     .text.main:00000000 $t
/var/folders/jb/36vwlcf91_ncq9m312zwyvxr0000gp/T//ccbJxUwA.s:88     .text.main:00000000 main
/var/folders/jb/36vwlcf91_ncq9m312zwyvxr0000gp/T//ccbJxUwA.s:157    .text.main:00000058 $d

UNDEFINED SYMBOLS
SystemCoreClock
SystemInit
SystemCoreClockUpdate
RCC_APB2PeriphClockCmd
GPIO_Init
GPIO_SetBits
GPIO_ResetBits
